target datalayout = "e-m:e-p270:32:32-p271:32:32-p272:64:64-i64:64-i128:128-f80:128-n8:16:32:64-S128"
target triple = "x86_64-pc-linux-gnu"

%struct._lv_fs_drv_t = type { i8, i32, ptr, ptr, ptr, ptr, ptr, ptr, ptr, ptr, ptr, ptr, ptr }
%struct.lv_fs_dir_t = type { ptr, ptr }

; Function Attrs: nounwind uwtable
define i32 @lv_fs_dir_read(ptr noundef %0, ptr noundef %1, i32 noundef %2) #0 {
  %4 = alloca i32, align 4
  %5 = alloca ptr, align 8
  %6 = alloca ptr, align 8
  %7 = alloca i32, align 4
  %8 = alloca i32, align 4
  store ptr %0, ptr %5, align 8, !tbaa !6
  store ptr %1, ptr %6, align 8, !tbaa !6
  store i32 %2, ptr %7, align 4, !tbaa !14
  %9 = load i32, ptr %7, align 4, !tbaa !14
  %10 = icmp eq i32 %9, 0
  br i1 %10, label %11, label %12

11:                                               ; preds = %3
  store i32 11, ptr %4, align 4
  br label %51

12:                                               ; preds = %3
  %13 = load ptr, ptr %5, align 8, !tbaa !6
  %14 = getelementptr inbounds nuw %struct.lv_fs_dir_t, ptr %13, i32 0, i32 1
  %15 = load ptr, ptr %14, align 8, !tbaa !40
  %16 = icmp eq ptr %15, null
  br i1 %16, label %22, label %17

17:                                               ; preds = %12
  %18 = load ptr, ptr %5, align 8, !tbaa !6
  %19 = getelementptr inbounds nuw %struct.lv_fs_dir_t, ptr %18, i32 0, i32 0
  %20 = load ptr, ptr %19, align 8, !tbaa !42
  %21 = icmp eq ptr %20, null
  br i1 %21, label %22, label %25

22:                                               ; preds = %17, %12
  %23 = load ptr, ptr %6, align 8, !tbaa !6
  %24 = getelementptr inbounds i8, ptr %23, i64 0
  store i8 0, ptr %24, align 1, !tbaa !3
  store i32 11, ptr %4, align 4
  br label %51

25:                                               ; preds = %17
  %26 = load ptr, ptr %5, align 8, !tbaa !6
  %27 = getelementptr inbounds nuw %struct.lv_fs_dir_t, ptr %26, i32 0, i32 1
  %28 = load ptr, ptr %27, align 8, !tbaa !40
  %29 = getelementptr inbounds nuw %struct._lv_fs_drv_t, ptr %28, i32 0, i32 10
  %30 = load ptr, ptr %29, align 8, !tbaa !43
  %31 = icmp eq ptr %30, null
  br i1 %31, label %32, label %35

32:                                               ; preds = %25
  %33 = load ptr, ptr %6, align 8, !tbaa !6
  %34 = getelementptr inbounds i8, ptr %33, i64 0
  store i8 0, ptr %34, align 1, !tbaa !3
  store i32 9, ptr %4, align 4
  br label %51

35:                                               ; preds = %25
  call void @llvm.lifetime.start.p0(i64 4, ptr %8) #4
  %36 = load ptr, ptr %5, align 8, !tbaa !6
  %37 = getelementptr inbounds nuw %struct.lv_fs_dir_t, ptr %36, i32 0, i32 1
  %38 = load ptr, ptr %37, align 8, !tbaa !40
  %39 = getelementptr inbounds nuw %struct._lv_fs_drv_t, ptr %38, i32 0, i32 10
  %40 = load ptr, ptr %39, align 8, !tbaa !43
  %41 = load ptr, ptr %5, align 8, !tbaa !6
  %42 = getelementptr inbounds nuw %struct.lv_fs_dir_t, ptr %41, i32 0, i32 1
  %43 = load ptr, ptr %42, align 8, !tbaa !40
  %44 = load ptr, ptr %5, align 8, !tbaa !6
  %45 = getelementptr inbounds nuw %struct.lv_fs_dir_t, ptr %44, i32 0, i32 0
  %46 = load ptr, ptr %45, align 8, !tbaa !42
  %47 = load ptr, ptr %6, align 8, !tbaa !6
  %48 = load i32, ptr %7, align 4, !tbaa !14
  %49 = call i32 %40(ptr noundef %43, ptr noundef %46, ptr noundef %47, i32 noundef %48)
  store i32 %49, ptr %8, align 4, !tbaa !14
  %50 = load i32, ptr %8, align 4, !tbaa !14
  store i32 %50, ptr %4, align 4
  call void @llvm.lifetime.end.p0(i64 4, ptr %8) #4
  br label %51

51:                                               ; preds = %35, %32, %22, %11
  %52 = load i32, ptr %4, align 4
  ret i32 %52
}