; Function Attrs: nounwind uwtable
define i32 @lv_fs_dir_read(ptr nocapture noundef readonly %0, ptr noundef %1, i32 noundef %2) local_unnamed_addr #0 {
  %4 = icmp eq i32 %2, 0
  br i1 %4, label %20, label %5

5:                                                ; preds = %3
  %6 = getelementptr inbounds nuw i8, ptr %0, i64 8
  %7 = load ptr, ptr %6, align 8, !tbaa !35
  %8 = icmp eq ptr %7, null
  br i1 %8, label %12, label %9

9:                                                ; preds = %5
  %10 = load ptr, ptr %0, align 8, !tbaa !37
  %11 = icmp eq ptr %10, null
  br i1 %11, label %12, label %13

12:                                               ; preds = %9, %5
  store i8 0, ptr %1, align 1, !tbaa !13
  br label %20

13:                                               ; preds = %9
  %14 = getelementptr inbounds nuw i8, ptr %7, i64 72
  %15 = load ptr, ptr %14, align 8, !tbaa !38
  %16 = icmp eq ptr %15, null
  br i1 %16, label %17, label %18

17:                                               ; preds = %13
  store i8 0, ptr %1, align 1, !tbaa !13
  br label %20

18:                                               ; preds = %13
  %19 = tail call i32 %15(ptr noundef nonnull %7, ptr noundef nonnull %10, ptr noundef %1, i32 noundef %2) #6
  br label %20

20:                                               ; preds = %3, %18, %17, %12
  %.0 = phi i32 [ 11, %12 ], [ 9, %17 ], [ %19, %18 ], [ 11, %3 ]
  ret i32 %.0
}